; Function Attrs: mustprogress uwtable
define dso_local void @_ZN19cmCMakePresetsGraph15GetUserFilenameERKNSt7__cxx1112basic_stringIcSt11char_traitsIcESaIcEEE(ptr dead_on_unwind noalias writable sret(%"class.std::__cxx11::basic_string") align 8 %0, ptr noundef nonnull align 8 dereferenceable(32) %1) local_unnamed_addr #3 align 2 personality ptr @__gxx_personality_v0 {
  %3 = alloca [2 x %"struct.std::pair.383"], align 8
  call void @llvm.lifetime.start.p0(i64 48, ptr nonnull %3)
  %4 = tail call { i64, ptr } @_ZNKSt7__cxx1112basic_stringIcSt11char_traitsIcESaIcEEcvSt17basic_string_viewIcS2_EEv(ptr noundef nonnull align 8 dereferenceable(32) %1) #20, !noalias !17
  %5 = extractvalue { i64, ptr } %4, 0
  %6 = extractvalue { i64, ptr } %4, 1
  store i64 %5, ptr %3, align 8, !alias.scope !20, !noalias !17
  %.sroa.2.0..sroa_idx.i.i = getelementptr inbounds i8, ptr %3, i64 8
  store ptr %6, ptr %.sroa.2.0..sroa_idx.i.i, align 8, !alias.scope !20, !noalias !17
  %7 = getelementptr inbounds i8, ptr %3, i64 16
  store ptr null, ptr %7, align 8, !alias.scope !20, !noalias !17
  %8 = getelementptr inbounds i8, ptr %3, i64 24
  store i64 22, ptr %8, align 8, !alias.scope !23, !noalias !17
  %.sroa.2.0..sroa_idx.i6.i = getelementptr inbounds i8, ptr %3, i64 32
  store ptr @.str.13, ptr %.sroa.2.0..sroa_idx.i6.i, align 8, !alias.scope !23, !noalias !17
  %9 = getelementptr inbounds i8, ptr %3, i64 40
  store ptr null, ptr %9, align 8, !alias.scope !23, !noalias !17
  call void @_Z10cmCatViewsSt16initializer_listISt4pairISt17basic_string_viewIcSt11char_traitsIcEEPNSt7__cxx1112basic_stringIcS3_SaIcEEEEE(ptr dead_on_unwind writable sret(%"class.std::__cxx11::basic_string") align 8 %0, ptr nonnull %3, i64 2)
  call void @llvm.lifetime.end.p0(i64 48, ptr nonnull %3)
  ret void
}